target datalayout = "e-m:e-p270:32:32-p271:32:32-p272:64:64-i64:64-i128:128-f80:128-n8:16:32:64-S128"
target triple = "x86_64-pc-linux-gnu"

%struct.ModuleConfig = type { ptr, ptr, i32, ptr, %union.get_fn, %union.set_fn, ptr, ptr }
%union.get_fn = type { ptr }
%union.set_fn = type { ptr }

; Function Attrs: nounwind uwtable
define dso_local i32 @moduleListConfigMatch(ptr noundef %0, ptr noundef %1) #0 {
  %3 = alloca ptr, align 8
  %4 = alloca ptr, align 8
  %5 = alloca ptr, align 8
  store ptr %0, ptr %3, align 8, !tbaa !9
  store ptr %1, ptr %4, align 8, !tbaa !9
  call void @llvm.lifetime.start.p0(i64 8, ptr %5) #15
  %6 = load ptr, ptr %3, align 8, !tbaa !9
  store ptr %6, ptr %5, align 8, !tbaa !259
  %7 = load ptr, ptr %5, align 8, !tbaa !259
  %8 = getelementptr inbounds nuw %struct.ModuleConfig, ptr %7, i32 0, i32 0
  %9 = load ptr, ptr %8, align 8, !tbaa !261
  %10 = load ptr, ptr %4, align 8, !tbaa !9
  %11 = call i32 @strcasecmp(ptr noundef %9, ptr noundef %10) #19
  %12 = icmp eq i32 %11, 0
  br i1 %12, label %27, label %13

13:                                               ; preds = %2
  %14 = load ptr, ptr %5, align 8, !tbaa !259
  %15 = getelementptr inbounds nuw %struct.ModuleConfig, ptr %14, i32 0, i32 1
  %16 = load ptr, ptr %15, align 8, !tbaa !263
  %17 = icmp ne ptr %16, null
  br i1 %17, label %18, label %25

18:                                               ; preds = %13
  %19 = load ptr, ptr %5, align 8, !tbaa !259
  %20 = getelementptr inbounds nuw %struct.ModuleConfig, ptr %19, i32 0, i32 1
  %21 = load ptr, ptr %20, align 8, !tbaa !263
  %22 = load ptr, ptr %4, align 8, !tbaa !9
  %23 = call i32 @strcasecmp(ptr noundef %21, ptr noundef %22) #19
  %24 = icmp eq i32 %23, 0
  br label %25

25:                                               ; preds = %18, %13
  %26 = phi i1 [ false, %13 ], [ %24, %18 ]
  br label %27

27:                                               ; preds = %25, %2
  %28 = phi i1 [ true, %2 ], [ %26, %25 ]
  %29 = zext i1 %28 to i32
  call void @llvm.lifetime.end.p0(i64 8, ptr %5) #15
  ret i32 %29
}