; Function Attrs: mustprogress nofree nounwind willreturn memory(read) uwtable
define dso_local range(i32 0, 2) i32 @moduleListConfigMatch(ptr noundef readonly captures(none) %0, ptr noundef readonly captures(none) %1) #13 {
  %3 = load ptr, ptr %0, align 8, !tbaa !242
  %4 = tail call i32 @strcasecmp(ptr noundef %3, ptr noundef %1) #39
  %5 = icmp eq i32 %4, 0
  br i1 %5, label %13, label %6

6:                                                ; preds = %2
  %7 = getelementptr inbounds nuw i8, ptr %0, i64 8
  %8 = load ptr, ptr %7, align 8, !tbaa !244
  %.not = icmp eq ptr %8, null
  br i1 %.not, label %13, label %9

9:                                                ; preds = %6
  %10 = tail call i32 @strcasecmp(ptr noundef nonnull %8, ptr noundef %1) #39
  %11 = icmp eq i32 %10, 0
  %12 = zext i1 %11 to i32
  br label %13

13:                                               ; preds = %6, %9, %2
  %14 = phi i32 [ 1, %2 ], [ 0, %6 ], [ %12, %9 ]
  ret i32 %14
}